; Function Attrs: mustprogress uwtable
define hidden void @_ZN7nanogui7TextBox9set_themeEPNS_5ThemeE(ptr noundef nonnull align 8 dereferenceable(440) %0, ptr noundef %1) unnamed_addr #3 align 2 {
  tail call void @_ZN7nanogui6Widget9set_themeEPNS_5ThemeE(ptr noundef nonnull align 8 dereferenceable(140) %0, ptr noundef %1)
  %3 = getelementptr inbounds i8, ptr %0, i64 24
  %4 = load ptr, ptr %3, align 8
  %.not = icmp eq ptr %4, null
  br i1 %.not, label %9, label %5

5:                                                ; preds = %2
  %6 = getelementptr inbounds i8, ptr %4, i64 40
  %7 = load i32, ptr %6, align 8
  %8 = getelementptr inbounds i8, ptr %0, i64 128
  store i32 %7, ptr %8, align 8
  br label %9

9:                                                ; preds = %5, %2
  ret void
}